target datalayout = "e-m:e-p270:32:32-p271:32:32-p272:64:64-i64:64-i128:128-f80:128-n8:16:32:64-S128"
target triple = "x86_64-pc-linux-gnu"

%struct.Hash_Int_t_ = type { i32, i32, ptr, ptr }
%struct.Hash_Int_Entry_t_ = type { i32, i32, ptr }

; Function Attrs: inlinehint nounwind uwtable
define internal void @Hash_IntWriteEntry(ptr noundef %0, i32 noundef %1, i32 noundef %2) #1 {
  %4 = alloca ptr, align 8
  %5 = alloca i32, align 4
  %6 = alloca i32, align 4
  %7 = alloca i32, align 4
  %8 = alloca ptr, align 8
  %9 = alloca ptr, align 8
  %10 = alloca i32, align 4
  store ptr %0, ptr %4, align 8, !tbaa !118
  store i32 %1, ptr %5, align 4, !tbaa !3
  store i32 %2, ptr %6, align 4, !tbaa !3
  call void @llvm.lifetime.start.p0(i64 4, ptr %7) #10
  call void @llvm.lifetime.start.p0(i64 8, ptr %8) #10
  call void @llvm.lifetime.start.p0(i64 8, ptr %9) #10
  %11 = load ptr, ptr %4, align 8, !tbaa !118
  %12 = getelementptr inbounds nuw %struct.Hash_Int_t_, ptr %11, i32 0, i32 2
  %13 = load ptr, ptr %12, align 8, !tbaa !155
  %14 = load i32, ptr %5, align 4, !tbaa !3
  %15 = load ptr, ptr %4, align 8, !tbaa !118
  %16 = getelementptr inbounds nuw %struct.Hash_Int_t_, ptr %15, i32 0, i32 1
  %17 = load i32, ptr %16, align 4, !tbaa !152
  %18 = call i32 %13(i32 noundef %14, i32 noundef %17)
  store i32 %18, ptr %7, align 4, !tbaa !3
  %19 = load ptr, ptr %4, align 8, !tbaa !118
  %20 = getelementptr inbounds nuw %struct.Hash_Int_t_, ptr %19, i32 0, i32 3
  %21 = load ptr, ptr %20, align 8, !tbaa !157
  %22 = load i32, ptr %7, align 4, !tbaa !3
  %23 = sext i32 %22 to i64
  %24 = getelementptr inbounds ptr, ptr %21, i64 %23
  store ptr %24, ptr %9, align 8, !tbaa !163
  %25 = load ptr, ptr %4, align 8, !tbaa !118
  %26 = getelementptr inbounds nuw %struct.Hash_Int_t_, ptr %25, i32 0, i32 3
  %27 = load ptr, ptr %26, align 8, !tbaa !157
  %28 = load i32, ptr %7, align 4, !tbaa !3
  %29 = sext i32 %28 to i64
  %30 = getelementptr inbounds ptr, ptr %27, i64 %29
  %31 = load ptr, ptr %30, align 8, !tbaa !158
  store ptr %31, ptr %8, align 8, !tbaa !158
  br label %32

32:                                               ; preds = %45, %3
  %33 = load ptr, ptr %8, align 8, !tbaa !158
  %34 = icmp ne ptr %33, null
  br i1 %34, label %35, label %51

35:                                               ; preds = %32
  %36 = load ptr, ptr %8, align 8, !tbaa !158
  %37 = getelementptr inbounds nuw %struct.Hash_Int_Entry_t_, ptr %36, i32 0, i32 0
  %38 = load i32, ptr %37, align 8, !tbaa !164
  %39 = load i32, ptr %5, align 4, !tbaa !3
  %40 = icmp eq i32 %38, %39
  br i1 %40, label %41, label %45

41:                                               ; preds = %35
  %42 = load i32, ptr %6, align 4, !tbaa !3
  %43 = load ptr, ptr %8, align 8, !tbaa !158
  %44 = getelementptr inbounds nuw %struct.Hash_Int_Entry_t_, ptr %43, i32 0, i32 1
  store i32 %42, ptr %44, align 4, !tbaa !168
  store i32 1, ptr %10, align 4
  br label %66

45:                                               ; preds = %35
  %46 = load ptr, ptr %8, align 8, !tbaa !158
  %47 = getelementptr inbounds nuw %struct.Hash_Int_Entry_t_, ptr %46, i32 0, i32 2
  store ptr %47, ptr %9, align 8, !tbaa !163
  %48 = load ptr, ptr %8, align 8, !tbaa !158
  %49 = getelementptr inbounds nuw %struct.Hash_Int_Entry_t_, ptr %48, i32 0, i32 2
  %50 = load ptr, ptr %49, align 8, !tbaa !166
  store ptr %50, ptr %8, align 8, !tbaa !158
  br label %32, !llvm.loop !169

51:                                               ; preds = %32
  %52 = load ptr, ptr %4, align 8, !tbaa !118
  %53 = getelementptr inbounds nuw %struct.Hash_Int_t_, ptr %52, i32 0, i32 0
  %54 = load i32, ptr %53, align 8, !tbaa !156
  %55 = add nsw i32 %54, 1
  store i32 %55, ptr %53, align 8, !tbaa !156
  %56 = call noalias ptr @malloc(i64 noundef 16) #12
  store ptr %56, ptr %8, align 8, !tbaa !158
  %57 = load ptr, ptr %9, align 8, !tbaa !163
  store ptr %56, ptr %57, align 8, !tbaa !158
  %58 = load ptr, ptr %8, align 8, !tbaa !158
  %59 = getelementptr inbounds nuw %struct.Hash_Int_Entry_t_, ptr %58, i32 0, i32 2
  store ptr null, ptr %59, align 8, !tbaa !166
  %60 = load i32, ptr %5, align 4, !tbaa !3
  %61 = load ptr, ptr %8, align 8, !tbaa !158
  %62 = getelementptr inbounds nuw %struct.Hash_Int_Entry_t_, ptr %61, i32 0, i32 0
  store i32 %60, ptr %62, align 8, !tbaa !164
  %63 = load i32, ptr %6, align 4, !tbaa !3
  %64 = load ptr, ptr %8, align 8, !tbaa !158
  %65 = getelementptr inbounds nuw %struct.Hash_Int_Entry_t_, ptr %64, i32 0, i32 1
  store i32 %63, ptr %65, align 4, !tbaa !168
  store i32 1, ptr %10, align 4
  br label %66

66:                                               ; preds = %51, %41
  call void @llvm.lifetime.end.p0(i64 8, ptr %9) #10
  call void @llvm.lifetime.end.p0(i64 8, ptr %8) #10
  call void @llvm.lifetime.end.p0(i64 4, ptr %7) #10
  ret void
}