; Function Attrs: inlinehint nounwind uwtable
define internal fastcc void @Hash_IntWriteEntry(ptr noundef nonnull captures(none) %0, i32 noundef %1) unnamed_addr #7 {
  %3 = getelementptr inbounds nuw i8, ptr %0, i64 8
  %4 = load ptr, ptr %3, align 8, !tbaa !124
  %5 = getelementptr inbounds nuw i8, ptr %0, i64 4
  %6 = load i32, ptr %5, align 4, !tbaa !121
  %7 = tail call i32 %4(i32 noundef %1, i32 noundef %6) #19
  %8 = getelementptr inbounds nuw i8, ptr %0, i64 16
  %9 = load ptr, ptr %8, align 8, !tbaa !126
  %10 = sext i32 %7 to i64
  %11 = getelementptr inbounds ptr, ptr %9, i64 %10
  %.02023 = load ptr, ptr %11, align 8, !tbaa !127
  %.not24 = icmp eq ptr %.02023, null
  br i1 %.not24, label %._crit_edge, label %.lr.ph

.lr.ph:                                           ; preds = %2, %14
  %.02025 = phi ptr [ %.020, %14 ], [ %.02023, %2 ]
  %12 = load i32, ptr %.02025, align 8, !tbaa !130
  %13 = icmp eq i32 %12, %1
  br i1 %13, label %.loopexit, label %14

14:                                               ; preds = %.lr.ph
  %15 = getelementptr inbounds nuw i8, ptr %.02025, i64 8
  %.020 = load ptr, ptr %15, align 8, !tbaa !127
  %.not = icmp eq ptr %.020, null
  br i1 %.not, label %._crit_edge.loopexit, label %.lr.ph, !llvm.loop !141

._crit_edge.loopexit:                             ; preds = %14
  %16 = getelementptr inbounds nuw i8, ptr %.02025, i64 8
  br label %._crit_edge

._crit_edge:                                      ; preds = %._crit_edge.loopexit, %2
  %.0.lcssa = phi ptr [ %11, %2 ], [ %16, %._crit_edge.loopexit ]
  %17 = load i32, ptr %0, align 8, !tbaa !125
  %18 = add nsw i32 %17, 1
  store i32 %18, ptr %0, align 8, !tbaa !125
  %19 = tail call noalias dereferenceable_or_null(16) ptr @malloc(i64 noundef 16) #21
  store ptr %19, ptr %.0.lcssa, align 8, !tbaa !127
  %20 = getelementptr inbounds nuw i8, ptr %19, i64 8
  store ptr null, ptr %20, align 8, !tbaa !138
  store i32 %1, ptr %19, align 8, !tbaa !130
  br label %.loopexit

.loopexit:                                        ; preds = %.lr.ph, %._crit_edge
  %.sink29 = phi ptr [ %19, %._crit_edge ], [ %.02025, %.lr.ph ]
  %21 = getelementptr inbounds nuw i8, ptr %.sink29, i64 4
  store i32 0, ptr %21, align 4, !tbaa !142
  ret void
}